target datalayout = "e-m:e-p270:32:32-p271:32:32-p272:64:64-i64:64-i128:128-f80:128-n8:16:32:64-S128"
target triple = "x86_64-pc-linux-gnu"

%"struct.vcpkg::StringView" = type { ptr, i64 }
%"struct.vcpkg::StringLiteral" = type { %"struct.vcpkg::ZStringView" }
%"struct.vcpkg::ZStringView" = type { %"struct.vcpkg::StringView" }
%"struct.vcpkg::Optional.150" = type { %"struct.vcpkg::details::OptionalStorage.151" }
%"struct.vcpkg::details::OptionalStorage.151" = type { i8, %union.anon.152 }
%union.anon.152 = type { %"struct.vcpkg::StringLiteral" }
%"struct.std::pair" = type { i32, %"struct.vcpkg::StringLiteral" }

; Function Attrs: mustprogress nounwind uwtable
define linkonce_odr dso_local void @_ZN5vcpkg7details15OptionalStorageINS_13StringLiteralELb1EEC2Ev(ptr noundef nonnull align 8 dereferenceable(24) %0) unnamed_addr #0 comdat align 2 {
  %2 = alloca ptr, align 8
  store ptr %0, ptr %2, align 8
  %3 = load ptr, ptr %2, align 8
  %4 = getelementptr inbounds %"struct.vcpkg::details::OptionalStorage.151", ptr %3, i32 0, i32 0
  store i8 0, ptr %4, align 8
  %5 = getelementptr inbounds %"struct.vcpkg::details::OptionalStorage.151", ptr %3, i32 0, i32 1
  store i8 0, ptr %5, align 8
  ret void
}

; Function Attrs: mustprogress nounwind uwtable
define linkonce_odr dso_local void @_ZN5vcpkg7details15OptionalStorageINS_13StringLiteralELb1EEC2ERKS2_(ptr noundef nonnull align 8 dereferenceable(24) %0, ptr noundef nonnull align 8 dereferenceable(16) %1) unnamed_addr #0 comdat align 2 {
  %3 = alloca ptr, align 8
  %4 = alloca ptr, align 8
  store ptr %0, ptr %3, align 8
  store ptr %1, ptr %4, align 8
  %5 = load ptr, ptr %3, align 8
  %6 = getelementptr inbounds %"struct.vcpkg::details::OptionalStorage.151", ptr %5, i32 0, i32 0
  store i8 1, ptr %6, align 8
  %7 = getelementptr inbounds %"struct.vcpkg::details::OptionalStorage.151", ptr %5, i32 0, i32 1
  %8 = load ptr, ptr %4, align 8
  call void @llvm.memcpy.p0.p0.i64(ptr align 8 %7, ptr align 8 %8, i64 16, i1 false)
  ret void
}

; Function Attrs: mustprogress nounwind uwtable
define linkonce_odr dso_local void @_ZN5vcpkg8OptionalINS_13StringLiteralEEC2ENS_7NullOptE(ptr noundef nonnull align 8 dereferenceable(24) %0) unnamed_addr #0 comdat align 2 {
  %2 = alloca ptr, align 8
  store ptr %0, ptr %2, align 8
  %3 = load ptr, ptr %2, align 8
  call void @_ZN5vcpkg7details15OptionalStorageINS_13StringLiteralELb1EEC2Ev(ptr noundef nonnull align 8 dereferenceable(24) %3) #8
  ret void
}

; Function Attrs: mustprogress nounwind uwtable
define linkonce_odr dso_local void @_ZN5vcpkg8OptionalINS_13StringLiteralEEC2IRKS1_TnNSt9enable_ifIXaantsr3stdE9is_same_vINSt5decayIT_E4typeES2_Esr3stdE18is_constructible_vINS_7details15OptionalStorageIS1_Lb1EEES8_EEiE4typeELi0EEEOS8_(ptr noundef nonnull align 8 dereferenceable(24) %0, ptr noundef nonnull align 8 dereferenceable(16) %1) unnamed_addr #0 comdat align 2 {
  %3 = alloca ptr, align 8
  %4 = alloca ptr, align 8
  store ptr %0, ptr %3, align 8
  store ptr %1, ptr %4, align 8
  %5 = load ptr, ptr %3, align 8
  %6 = load ptr, ptr %4, align 8
  call void @_ZN5vcpkg7details15OptionalStorageINS_13StringLiteralELb1EEC2ERKS2_(ptr noundef nonnull align 8 dereferenceable(24) %5, ptr noundef nonnull align 8 dereferenceable(16) %6) #8
  ret void
}

; Function Attrs: mustprogress nounwind uwtable
define dso_local void @_ZN5vcpkg3msg16get_language_tagEi(ptr dead_on_unwind noalias writable sret(%"struct.vcpkg::Optional.150") align 8 %0, i32 noundef %1) #0 {
  %3 = alloca ptr, align 8
  %4 = alloca i32, align 4
  %5 = alloca ptr, align 8
  %6 = alloca ptr, align 8
  %7 = alloca ptr, align 8
  %8 = alloca ptr, align 8
  store ptr %0, ptr %3, align 8
  store i32 %1, ptr %4, align 4
  store ptr @_ZZN5vcpkg3msg16get_language_tagEiE9languages, ptr %5, align 8
  store ptr @_ZZN5vcpkg3msg16get_language_tagEiE9languages, ptr %6, align 8
  store ptr getelementptr inbounds (%"struct.std::pair", ptr @_ZZN5vcpkg3msg16get_language_tagEiE9languages, i64 13), ptr %7, align 8
  br label %9

9:                                                ; preds = %24, %2
  %10 = load ptr, ptr %6, align 8
  %11 = load ptr, ptr %7, align 8
  %12 = icmp ne ptr %10, %11
  br i1 %12, label %13, label %27

13:                                               ; preds = %9
  %14 = load ptr, ptr %6, align 8
  store ptr %14, ptr %8, align 8
  %15 = load ptr, ptr %8, align 8
  %16 = getelementptr inbounds %"struct.std::pair", ptr %15, i32 0, i32 0
  %17 = load i32, ptr %16, align 8
  %18 = load i32, ptr %4, align 4
  %19 = icmp eq i32 %17, %18
  br i1 %19, label %20, label %23

20:                                               ; preds = %13
  %21 = load ptr, ptr %8, align 8
  %22 = getelementptr inbounds %"struct.std::pair", ptr %21, i32 0, i32 1
  call void @_ZN5vcpkg8OptionalINS_13StringLiteralEEC2IRKS1_TnNSt9enable_ifIXaantsr3stdE9is_same_vINSt5decayIT_E4typeES2_Esr3stdE18is_constructible_vINS_7details15OptionalStorageIS1_Lb1EEES8_EEiE4typeELi0EEEOS8_(ptr noundef nonnull align 8 dereferenceable(24) %0, ptr noundef nonnull align 8 dereferenceable(16) %22) #8
  br label %28

23:                                               ; preds = %13
  br label %24

24:                                               ; preds = %23
  %25 = load ptr, ptr %6, align 8
  %26 = getelementptr inbounds %"struct.std::pair", ptr %25, i32 1
  store ptr %26, ptr %6, align 8
  br label %9

27:                                               ; preds = %9
  call void @_ZN5vcpkg8OptionalINS_13StringLiteralEEC2ENS_7NullOptE(ptr noundef nonnull align 8 dereferenceable(24) %0) #8
  br label %28

28:                                               ; preds = %27, %20
  ret void
}