; Function Attrs: mustprogress nofree norecurse nosync nounwind memory(argmem: readwrite) uwtable
define dso_local void @_ZN5vcpkg3msg16get_language_tagEi(ptr dead_on_unwind noalias nocapture writable writeonly sret(%"struct.vcpkg::Optional.150") align 8 %0, i32 noundef %1) local_unnamed_addr #11 {
  br label %4

3:                                                ; preds = %4
  %.0.add = add nuw nsw i64 %.0.idx7, 24
  %.not = icmp eq i64 %.0.add, 312
  br i1 %.not, label %10, label %4

4:                                                ; preds = %2, %3
  %.0.idx7 = phi i64 [ 0, %2 ], [ %.0.add, %3 ]
  %.0.ptr8 = getelementptr inbounds i8, ptr @_ZZN5vcpkg3msg16get_language_tagEiE9languages, i64 %.0.idx7
  %5 = load i32, ptr %.0.ptr8, align 8
  %6 = icmp eq i32 %5, %1
  br i1 %6, label %7, label %3

7:                                                ; preds = %4
  %.0.ptr8.le = getelementptr inbounds i8, ptr @_ZZN5vcpkg3msg16get_language_tagEiE9languages, i64 %.0.idx7
  %8 = getelementptr inbounds i8, ptr %.0.ptr8.le, i64 8
  store i8 1, ptr %0, align 8
  %9 = getelementptr inbounds i8, ptr %0, i64 8
  tail call void @llvm.memcpy.p0.p0.i64(ptr noundef nonnull align 8 dereferenceable(16) %9, ptr noundef nonnull align 8 dereferenceable(16) %8, i64 16, i1 false)
  br label %12

10:                                               ; preds = %3
  store i8 0, ptr %0, align 8
  %11 = getelementptr inbounds i8, ptr %0, i64 8
  store i8 0, ptr %11, align 8
  br label %12

12:                                               ; preds = %10, %7
  ret void
}